target datalayout = "e-m:e-p270:32:32-p271:32:32-p272:64:64-i64:64-i128:128-f80:128-n8:16:32:64-S128"
target triple = "x86_64-pc-linux-gnu"

%struct.pmi2_tree_info = type { ptr, ptr, i32, i32, i32, i32, i16, ptr, ptr }
%struct.buf_t = type { i32, ptr, i32, i32, i8, i8 }

@plugin_type = external constant [0 x i8], align 1
@tree_info = external global %struct.pmi2_tree_info, align 8
@.str.54 = private unnamed_addr constant [41 x i8] c"%s: %s: mpi/pmi2: in _handle_name_lookup\00", align 1
@__func__._handle_name_lookup = private unnamed_addr constant [20 x i8] c"_handle_name_lookup\00", align 1
@.str.55 = private unnamed_addr constant [42 x i8] c"%s: %s: mpi/pmi2: out _handle_name_lookup\00", align 1

; Function Attrs: nounwind uwtable
define internal i32 @_handle_name_lookup(i32 noundef %0, ptr noundef %1) #0 {
  %3 = alloca i32, align 4
  %4 = alloca i32, align 4
  %5 = alloca ptr, align 8
  %6 = alloca i32, align 4
  %7 = alloca i32, align 4
  %8 = alloca ptr, align 8
  %9 = alloca ptr, align 8
  %10 = alloca ptr, align 8
  %11 = alloca i32, align 4
  %12 = alloca i32, align 4
  %13 = alloca i32, align 4
  store i32 %0, ptr %4, align 4
  store ptr %1, ptr %5, align 8
  call void @llvm.lifetime.start.p0(i64 4, ptr %6) #6
  store i32 0, ptr %6, align 4
  call void @llvm.lifetime.start.p0(i64 4, ptr %7) #6
  call void @llvm.lifetime.start.p0(i64 8, ptr %8) #6
  store ptr null, ptr %8, align 8
  call void @llvm.lifetime.start.p0(i64 8, ptr %9) #6
  store ptr null, ptr %9, align 8
  call void @llvm.lifetime.start.p0(i64 8, ptr %10) #6
  store ptr null, ptr %10, align 8
  br label %14

14:                                               ; preds = %2
  br label %15

15:                                               ; preds = %14
  %16 = call i32 @slurm_get_log_level()
  %17 = icmp sge i32 %16, 7
  br i1 %17, label %18, label %19

18:                                               ; preds = %15
  call void (i32, ptr, ...) @slurm_log_var(i32 noundef 7, ptr noundef @.str.54, ptr noundef @plugin_type, ptr noundef @__func__._handle_name_lookup)
  br label %19

19:                                               ; preds = %18, %15
  br label %20

20:                                               ; preds = %19
  br label %21

21:                                               ; preds = %20
  br label %22

22:                                               ; preds = %21
  br label %23

23:                                               ; preds = %22
  br label %24

24:                                               ; preds = %23
  call void @llvm.lifetime.start.p0(i64 4, ptr %11) #6
  %25 = load ptr, ptr %5, align 8
  %26 = call i32 @slurm_unpackstr_xmalloc_chooser(ptr noundef %8, ptr noundef %11, ptr noundef %25)
  %27 = icmp ne i32 %26, 0
  br i1 %27, label %28, label %29

28:                                               ; preds = %24
  store i32 8, ptr %12, align 4
  br label %30

29:                                               ; preds = %24
  store i32 0, ptr %12, align 4
  br label %30

30:                                               ; preds = %28, %29
  call void @llvm.lifetime.end.p0(i64 4, ptr %11) #6
  %31 = load i32, ptr %12, align 4
  switch i32 %31, label %99 [
    i32 0, label %32
    i32 8, label %98
  ]

32:                                               ; preds = %30
  br label %33

33:                                               ; preds = %32
  br label %34

34:                                               ; preds = %33
  %35 = load ptr, ptr getelementptr inbounds nuw (%struct.pmi2_tree_info, ptr @tree_info, i32 0, i32 7), align 8
  %36 = icmp ne ptr %35, null
  br i1 %36, label %37, label %40

37:                                               ; preds = %34
  %38 = load ptr, ptr %8, align 8
  %39 = call ptr @name_lookup_up(ptr noundef %38)
  store ptr %39, ptr %9, align 8
  br label %43

40:                                               ; preds = %34
  %41 = load ptr, ptr %8, align 8
  %42 = call ptr @name_lookup_local(ptr noundef %41)
  store ptr %42, ptr %9, align 8
  br label %43

43:                                               ; preds = %40, %37
  br label %44

44:                                               ; preds = %98, %43
  %45 = call ptr @slurm_init_buf(i32 noundef 1024)
  store ptr %45, ptr %10, align 8
  br label %46

46:                                               ; preds = %44
  call void @llvm.lifetime.start.p0(i64 4, ptr %13) #6
  store i32 0, ptr %13, align 4
  %47 = load ptr, ptr %9, align 8
  %48 = icmp ne ptr %47, null
  br i1 %48, label %49, label %54

49:                                               ; preds = %46
  %50 = load ptr, ptr %9, align 8
  %51 = call i64 @strlen(ptr noundef %50) #8
  %52 = trunc i64 %51 to i32
  %53 = add i32 %52, 1
  store i32 %53, ptr %13, align 4
  br label %54

54:                                               ; preds = %49, %46
  %55 = load ptr, ptr %9, align 8
  %56 = load i32, ptr %13, align 4
  %57 = load ptr, ptr %10, align 8
  call void @slurm_packmem(ptr noundef %55, i32 noundef %56, ptr noundef %57)
  call void @llvm.lifetime.end.p0(i64 4, ptr %13) #6
  br label %58

58:                                               ; preds = %54
  br label %59

59:                                               ; preds = %58
  %60 = load i32, ptr %4, align 4
  %61 = load ptr, ptr %10, align 8
  %62 = getelementptr inbounds nuw %struct.buf_t, ptr %61, i32 0, i32 1
  %63 = load ptr, ptr %62, align 8
  %64 = load ptr, ptr %10, align 8
  %65 = getelementptr inbounds nuw %struct.buf_t, ptr %64, i32 0, i32 3
  %66 = load i32, ptr %65, align 4
  %67 = zext i32 %66 to i64
  %68 = call i64 @slurm_msg_sendto(i32 noundef %60, ptr noundef %63, i64 noundef %67)
  %69 = trunc i64 %68 to i32
  store i32 %69, ptr %7, align 4
  %70 = load i32, ptr %6, align 4
  %71 = load i32, ptr %7, align 4
  %72 = icmp sgt i32 %70, %71
  br i1 %72, label %73, label %75

73:                                               ; preds = %59
  %74 = load i32, ptr %6, align 4
  br label %77

75:                                               ; preds = %59
  %76 = load i32, ptr %7, align 4
  br label %77

77:                                               ; preds = %75, %73
  %78 = phi i32 [ %74, %73 ], [ %76, %75 ]
  store i32 %78, ptr %6, align 4
  br label %79

79:                                               ; preds = %77
  %80 = load ptr, ptr %10, align 8
  %81 = icmp ne ptr %80, null
  br i1 %81, label %82, label %84

82:                                               ; preds = %79
  %83 = load ptr, ptr %10, align 8
  call void @slurm_free_buf(ptr noundef %83)
  br label %84

84:                                               ; preds = %82, %79
  store ptr null, ptr %10, align 8
  br label %85

85:                                               ; preds = %84
  br label %86

86:                                               ; preds = %85
  call void @slurm_xfree(ptr noundef %8)
  call void @slurm_xfree(ptr noundef %9)
  br label %87

87:                                               ; preds = %86
  br label %88

88:                                               ; preds = %87
  %89 = call i32 @slurm_get_log_level()
  %90 = icmp sge i32 %89, 7
  br i1 %90, label %91, label %92

91:                                               ; preds = %88
  call void (i32, ptr, ...) @slurm_log_var(i32 noundef 7, ptr noundef @.str.55, ptr noundef @plugin_type, ptr noundef @__func__._handle_name_lookup)
  br label %92

92:                                               ; preds = %91, %88
  br label %93

93:                                               ; preds = %92
  br label %94

94:                                               ; preds = %93
  br label %95

95:                                               ; preds = %94
  br label %96

96:                                               ; preds = %95
  %97 = load i32, ptr %6, align 4
  store i32 %97, ptr %3, align 4
  store i32 1, ptr %12, align 4
  br label %99

98:                                               ; preds = %30
  store i32 -1, ptr %6, align 4
  br label %44

99:                                               ; preds = %96, %30
  call void @llvm.lifetime.end.p0(i64 8, ptr %10) #6
  call void @llvm.lifetime.end.p0(i64 8, ptr %9) #6
  call void @llvm.lifetime.end.p0(i64 8, ptr %8) #6
  call void @llvm.lifetime.end.p0(i64 4, ptr %7) #6
  call void @llvm.lifetime.end.p0(i64 4, ptr %6) #6
  %100 = load i32, ptr %3, align 4
  ret i32 %100
}