; Function Attrs: nounwind uwtable
define internal range(i32 -1, -2147483648) i32 @_handle_name_lookup(i32 noundef %0, ptr noundef %1) #0 {
  %3 = alloca ptr, align 8
  %4 = alloca ptr, align 8
  %5 = alloca i32, align 4
  call void @llvm.lifetime.start.p0(i64 8, ptr nonnull %3) #7
  store ptr null, ptr %3, align 8
  call void @llvm.lifetime.start.p0(i64 8, ptr nonnull %4) #7
  store ptr null, ptr %4, align 8
  %6 = tail call i32 @slurm_get_log_level() #7
  %7 = icmp sgt i32 %6, 6
  br i1 %7, label %8, label %9

8:                                                ; preds = %2
  tail call void (i32, ptr, ...) @slurm_log_var(i32 noundef 7, ptr noundef nonnull @.str.54, ptr noundef nonnull @plugin_type, ptr noundef nonnull @__func__._handle_name_lookup) #7
  br label %9

9:                                                ; preds = %2, %8
  call void @llvm.lifetime.start.p0(i64 4, ptr nonnull %5) #7
  %10 = call i32 @slurm_unpackstr_xmalloc_chooser(ptr noundef nonnull %3, ptr noundef nonnull %5, ptr noundef %1) #7
  %.not = icmp eq i32 %10, 0
  call void @llvm.lifetime.end.p0(i64 4, ptr nonnull %5) #7
  br i1 %.not, label %12, label %.thread

.thread:                                          ; preds = %9
  %11 = call ptr @slurm_init_buf(i32 noundef 1024) #7
  br label %25

12:                                               ; preds = %9
  %13 = load ptr, ptr getelementptr inbounds nuw (i8, ptr @tree_info, i64 40), align 8
  %.not19 = icmp eq ptr %13, null
  %14 = load ptr, ptr %3, align 8
  br i1 %.not19, label %17, label %15

15:                                               ; preds = %12
  %16 = call ptr @name_lookup_up(ptr noundef %14) #7
  br label %19

17:                                               ; preds = %12
  %18 = call ptr @name_lookup_local(ptr noundef %14) #7
  br label %19

19:                                               ; preds = %15, %17
  %.sink = phi ptr [ %16, %15 ], [ %18, %17 ]
  store ptr %.sink, ptr %4, align 8
  %20 = call ptr @slurm_init_buf(i32 noundef 1024) #7
  %.not20 = icmp eq ptr %.sink, null
  br i1 %.not20, label %25, label %21

21:                                               ; preds = %19
  %22 = call i64 @strlen(ptr noundef nonnull dereferenceable(1) %.sink) #9
  %23 = trunc i64 %22 to i32
  %24 = add i32 %23, 1
  br label %25

25:                                               ; preds = %.thread, %21, %19
  %26 = phi ptr [ %20, %21 ], [ %20, %19 ], [ %11, %.thread ]
  %.01624 = phi i32 [ 0, %21 ], [ 0, %19 ], [ -1, %.thread ]
  %27 = phi ptr [ %.sink, %21 ], [ null, %19 ], [ null, %.thread ]
  %.0 = phi i32 [ %24, %21 ], [ 0, %19 ], [ 0, %.thread ]
  call void @slurm_packmem(ptr noundef %27, i32 noundef %.0, ptr noundef %26) #7
  %28 = getelementptr inbounds nuw i8, ptr %26, i64 8
  %29 = load ptr, ptr %28, align 8
  %30 = getelementptr inbounds nuw i8, ptr %26, i64 20
  %31 = load i32, ptr %30, align 4
  %32 = zext i32 %31 to i64
  %33 = call i64 @slurm_msg_sendto(i32 noundef %0, ptr noundef %29, i64 noundef %32) #7
  call void @slurm_free_buf(ptr noundef nonnull %26) #7
  call void @slurm_xfree(ptr noundef nonnull %3) #7
  call void @slurm_xfree(ptr noundef nonnull %4) #7
  %34 = call i32 @slurm_get_log_level() #7
  %35 = icmp sgt i32 %34, 6
  br i1 %35, label %36, label %37

36:                                               ; preds = %25
  call void (i32, ptr, ...) @slurm_log_var(i32 noundef 7, ptr noundef nonnull @.str.55, ptr noundef nonnull @plugin_type, ptr noundef nonnull @__func__._handle_name_lookup) #7
  br label %37

37:                                               ; preds = %25, %36
  %38 = trunc i64 %33 to i32
  %39 = call i32 @llvm.smax.i32(i32 %.01624, i32 %38)
  call void @llvm.lifetime.end.p0(i64 8, ptr nonnull %4) #7
  call void @llvm.lifetime.end.p0(i64 8, ptr nonnull %3) #7
  ret i32 %39
}